target datalayout = "e-m:e-p270:32:32-p271:32:32-p272:64:64-i64:64-i128:128-f80:128-n8:16:32:64-S128"
target triple = "x86_64-pc-linux-gnu"

%struct._value_string = type { i32, ptr }
%struct.expert_field = type { i32, i32 }

@hf_git_protocol_version = internal global i32 0, align 4
@hf_git_packet_type = internal global i32 0, align 4
@packet_type_vals = internal constant [4 x %struct._value_string] [%struct._value_string { i32 0, ptr @.str.33 }, %struct._value_string { i32 1, ptr @.str.34 }, %struct._value_string { i32 2, ptr @.str.35 }, %struct._value_string zeroinitializer], align 16
@hf_git_packet_len = internal global i32 0, align 4
@hf_git_packet_data = internal global i32 0, align 4
@hf_git_sideband_control_code = internal global i32 0, align 4
@ei_git_bad_pkt_len = internal global %struct.expert_field zeroinitializer, align 4
@.str.39 = private unnamed_addr constant [4 x i8] c"%hx\00", align 1
@.str.40 = private unnamed_addr constant [9 x i8] c"version \00", align 1

; Function Attrs: nounwind uwtable
define internal i32 @get_packet_length(ptr noundef %0, i32 noundef %1, ptr noundef %2) #0 {
  %4 = alloca ptr, align 8
  %5 = alloca i32, align 4
  %6 = alloca ptr, align 8
  %7 = alloca ptr, align 8
  store ptr %0, ptr %4, align 8
  store i32 %1, ptr %5, align 4
  store ptr %2, ptr %6, align 8
  %8 = call ptr @wmem_packet_scope()
  %9 = load ptr, ptr %4, align 8
  %10 = load i32, ptr %5, align 4
  %11 = call ptr @tvb_get_string_enc(ptr noundef %8, ptr noundef %9, i32 noundef %10, i32 noundef 4, i32 noundef 0)
  store ptr %11, ptr %7, align 8
  %12 = load ptr, ptr %7, align 8
  %13 = load ptr, ptr %6, align 8
  %14 = call i32 (ptr, ptr, ...) @__isoc99_sscanf(ptr noundef %12, ptr noundef @.str.39, ptr noundef %13) #3
  %15 = icmp eq i32 %14, 1
  %16 = zext i1 %15 to i32
  ret i32 %16
}

; Function Attrs: nounwind uwtable
define internal i32 @dissect_pkt_line(ptr noundef %0, ptr noundef %1, ptr noundef %2, ptr noundef %3) #0 {
  %5 = alloca i32, align 4
  %6 = alloca ptr, align 8
  %7 = alloca ptr, align 8
  %8 = alloca ptr, align 8
  %9 = alloca ptr, align 8
  %10 = alloca i16, align 2
  %11 = alloca ptr, align 8
  %12 = alloca i32, align 4
  store ptr %0, ptr %6, align 8
  store ptr %1, ptr %7, align 8
  store ptr %2, ptr %8, align 8
  store ptr %3, ptr %9, align 8
  %13 = load ptr, ptr %6, align 8
  %14 = load ptr, ptr %9, align 8
  %15 = load i32, ptr %14, align 4
  %16 = call i32 @get_packet_length(ptr noundef %13, i32 noundef %15, ptr noundef %10)
  %17 = icmp ne i32 %16, 0
  br i1 %17, label %19, label %18

18:                                               ; preds = %4
  store i32 0, ptr %5, align 4
  br label %115

19:                                               ; preds = %4
  %20 = load i16, ptr %10, align 2
  %21 = zext i16 %20 to i32
  %22 = icmp slt i32 %21, 4
  br i1 %22, label %23, label %44

23:                                               ; preds = %19
  %24 = load ptr, ptr %8, align 8
  %25 = load i32, ptr @hf_git_packet_type, align 4
  %26 = load ptr, ptr %6, align 8
  %27 = load ptr, ptr %9, align 8
  %28 = load i32, ptr %27, align 4
  %29 = load i16, ptr %10, align 2
  %30 = zext i16 %29 to i32
  %31 = call ptr @proto_tree_add_uint(ptr noundef %24, i32 noundef %25, ptr noundef %26, i32 noundef %28, i32 noundef 4, i32 noundef %30)
  store ptr %31, ptr %11, align 8
  %32 = load ptr, ptr %9, align 8
  %33 = load i32, ptr %32, align 4
  %34 = add i32 %33, 4
  store i32 %34, ptr %32, align 4
  %35 = load i16, ptr %10, align 2
  %36 = zext i16 %35 to i32
  %37 = call ptr @try_val_to_str(i32 noundef %36, ptr noundef @packet_type_vals)
  %38 = icmp ne ptr %37, null
  br i1 %38, label %43, label %39

39:                                               ; preds = %23
  %40 = load ptr, ptr %7, align 8
  %41 = load ptr, ptr %11, align 8
  %42 = call ptr @expert_add_info(ptr noundef %40, ptr noundef %41, ptr noundef @ei_git_bad_pkt_len)
  br label %43

43:                                               ; preds = %39, %23
  store i32 1, ptr %5, align 4
  br label %115

44:                                               ; preds = %19
  %45 = load ptr, ptr %8, align 8
  %46 = load i32, ptr @hf_git_packet_len, align 4
  %47 = load ptr, ptr %6, align 8
  %48 = load ptr, ptr %9, align 8
  %49 = load i32, ptr %48, align 4
  %50 = load i16, ptr %10, align 2
  %51 = zext i16 %50 to i32
  %52 = call ptr @proto_tree_add_uint(ptr noundef %45, i32 noundef %46, ptr noundef %47, i32 noundef %49, i32 noundef 4, i32 noundef %51)
  %53 = load ptr, ptr %9, align 8
  %54 = load i32, ptr %53, align 4
  %55 = add i32 %54, 4
  store i32 %55, ptr %53, align 4
  %56 = load i16, ptr %10, align 2
  %57 = zext i16 %56 to i32
  %58 = sub i32 %57, 4
  %59 = trunc i32 %58 to i16
  store i16 %59, ptr %10, align 2
  %60 = load i16, ptr %10, align 2
  %61 = zext i16 %60 to i32
  %62 = icmp sge i32 %61, 9
  br i1 %62, label %63, label %77

63:                                               ; preds = %44
  %64 = load ptr, ptr %6, align 8
  %65 = load ptr, ptr %9, align 8
  %66 = load i32, ptr %65, align 4
  %67 = call i32 @tvb_strneql(ptr noundef %64, i32 noundef %66, ptr noundef @.str.40, i64 noundef 8)
  %68 = icmp ne i32 %67, 0
  br i1 %68, label %77, label %69

69:                                               ; preds = %63
  %70 = load ptr, ptr %8, align 8
  %71 = load i32, ptr @hf_git_protocol_version, align 4
  %72 = load ptr, ptr %6, align 8
  %73 = load ptr, ptr %9, align 8
  %74 = load i32, ptr %73, align 4
  %75 = add i32 %74, 8
  %76 = call ptr @proto_tree_add_item(ptr noundef %70, i32 noundef %71, ptr noundef %72, i32 noundef %75, i32 noundef 1, i32 noundef 0)
  br label %77

77:                                               ; preds = %69, %63, %44
  %78 = load ptr, ptr %6, align 8
  %79 = load ptr, ptr %9, align 8
  %80 = load i32, ptr %79, align 4
  %81 = call zeroext i8 @tvb_get_guint8(ptr noundef %78, i32 noundef %80)
  %82 = zext i8 %81 to i32
  store i32 %82, ptr %12, align 4
  %83 = load i32, ptr %12, align 4
  %84 = icmp sle i32 1, %83
  br i1 %84, label %85, label %101

85:                                               ; preds = %77
  %86 = load i32, ptr %12, align 4
  %87 = icmp sle i32 %86, 3
  br i1 %87, label %88, label %101

88:                                               ; preds = %85
  %89 = load ptr, ptr %8, align 8
  %90 = load i32, ptr @hf_git_sideband_control_code, align 4
  %91 = load ptr, ptr %6, align 8
  %92 = load ptr, ptr %9, align 8
  %93 = load i32, ptr %92, align 4
  %94 = load i32, ptr %12, align 4
  %95 = call ptr @proto_tree_add_uint(ptr noundef %89, i32 noundef %90, ptr noundef %91, i32 noundef %93, i32 noundef 1, i32 noundef %94)
  %96 = load ptr, ptr %9, align 8
  %97 = load i32, ptr %96, align 4
  %98 = add i32 %97, 1
  store i32 %98, ptr %96, align 4
  %99 = load i16, ptr %10, align 2
  %100 = add i16 %99, -1
  store i16 %100, ptr %10, align 2
  br label %101

101:                                              ; preds = %88, %85, %77
  %102 = load ptr, ptr %8, align 8
  %103 = load i32, ptr @hf_git_packet_data, align 4
  %104 = load ptr, ptr %6, align 8
  %105 = load ptr, ptr %9, align 8
  %106 = load i32, ptr %105, align 4
  %107 = load i16, ptr %10, align 2
  %108 = zext i16 %107 to i32
  %109 = call ptr @proto_tree_add_item(ptr noundef %102, i32 noundef %103, ptr noundef %104, i32 noundef %106, i32 noundef %108, i32 noundef 0)
  %110 = load i16, ptr %10, align 2
  %111 = zext i16 %110 to i32
  %112 = load ptr, ptr %9, align 8
  %113 = load i32, ptr %112, align 4
  %114 = add i32 %113, %111
  store i32 %114, ptr %112, align 4
  store i32 1, ptr %5, align 4
  br label %115

115:                                              ; preds = %101, %43, %18
  %116 = load i32, ptr %5, align 4
  ret i32 %116
}