; Function Attrs: nounwind uwtable
define internal fastcc range(i32 0, 2) i32 @dissect_pkt_line(ptr noundef %0, ptr noundef %1, ptr noundef %2, ptr noundef nonnull captures(none) %3) unnamed_addr #0 {
  %5 = alloca i16, align 2
  %6 = load i32, ptr %3, align 4
  %7 = tail call ptr @wmem_packet_scope() #4
  %8 = tail call ptr @tvb_get_string_enc(ptr noundef %7, ptr noundef %0, i32 noundef %6, i32 noundef 4, i32 noundef 0) #4
  %9 = call i32 (ptr, ptr, ...) @__isoc99_sscanf(ptr noundef %8, ptr noundef nonnull @.str.39, ptr noundef nonnull %5) #4
  %.not = icmp eq i32 %9, 1
  br i1 %.not, label %10, label %61

10:                                               ; preds = %4
  %11 = load i16, ptr %5, align 2
  %12 = zext i16 %11 to i32
  %13 = icmp ult i16 %11, 4
  %14 = load i32, ptr %3, align 4
  br i1 %13, label %15, label %25

15:                                               ; preds = %10
  %16 = load i32, ptr @hf_git_packet_type, align 4
  %17 = call ptr @proto_tree_add_uint(ptr noundef %2, i32 noundef %16, ptr noundef %0, i32 noundef %14, i32 noundef 4, i32 noundef %12) #4
  %18 = load i32, ptr %3, align 4
  %19 = add i32 %18, 4
  store i32 %19, ptr %3, align 4
  %20 = load i16, ptr %5, align 2
  %21 = zext i16 %20 to i32
  %22 = call ptr @try_val_to_str(i32 noundef %21, ptr noundef nonnull @packet_type_vals) #4
  %.not34 = icmp eq ptr %22, null
  br i1 %.not34, label %23, label %61

23:                                               ; preds = %15
  %24 = call ptr @expert_add_info(ptr noundef %1, ptr noundef %17, ptr noundef nonnull @ei_git_bad_pkt_len) #4
  br label %61

25:                                               ; preds = %10
  %26 = load i32, ptr @hf_git_packet_len, align 4
  %27 = call ptr @proto_tree_add_uint(ptr noundef %2, i32 noundef %26, ptr noundef %0, i32 noundef %14, i32 noundef 4, i32 noundef %12) #4
  %28 = load i32, ptr %3, align 4
  %29 = add i32 %28, 4
  store i32 %29, ptr %3, align 4
  %30 = load i16, ptr %5, align 2
  %31 = add i16 %30, -4
  store i16 %31, ptr %5, align 2
  %32 = icmp ugt i16 %31, 8
  br i1 %32, label %33, label %39

33:                                               ; preds = %25
  %34 = call i32 @tvb_strneql(ptr noundef %0, i32 noundef %29, ptr noundef nonnull @.str.40, i64 noundef 8) #4
  %.not33 = icmp eq i32 %34, 0
  %.pre35 = load i32, ptr %3, align 4
  br i1 %.not33, label %35, label %39

35:                                               ; preds = %33
  %36 = load i32, ptr @hf_git_protocol_version, align 4
  %37 = add i32 %.pre35, 8
  %38 = call ptr @proto_tree_add_item(ptr noundef %2, i32 noundef %36, ptr noundef %0, i32 noundef %37, i32 noundef 1, i32 noundef 0) #4
  %.pre = load i32, ptr %3, align 4
  br label %39

39:                                               ; preds = %35, %33, %25
  %40 = phi i32 [ %.pre, %35 ], [ %.pre35, %33 ], [ %29, %25 ]
  %41 = call zeroext i8 @tvb_get_guint8(ptr noundef %0, i32 noundef %40) #4
  %42 = add i8 %41, -1
  %or.cond = icmp ult i8 %42, 3
  %.pre36 = load i32, ptr %3, align 4
  br i1 %or.cond, label %43, label %._crit_edge

._crit_edge:                                      ; preds = %39
  %.pre37 = load i16, ptr %5, align 2
  br label %51

43:                                               ; preds = %39
  %44 = zext nneg i8 %41 to i32
  %45 = load i32, ptr @hf_git_sideband_control_code, align 4
  %46 = call ptr @proto_tree_add_uint(ptr noundef %2, i32 noundef %45, ptr noundef %0, i32 noundef %.pre36, i32 noundef 1, i32 noundef %44) #4
  %47 = load i32, ptr %3, align 4
  %48 = add i32 %47, 1
  store i32 %48, ptr %3, align 4
  %49 = load i16, ptr %5, align 2
  %50 = add i16 %49, -1
  store i16 %50, ptr %5, align 2
  br label %51

51:                                               ; preds = %._crit_edge, %43
  %52 = phi i16 [ %50, %43 ], [ %.pre37, %._crit_edge ]
  %53 = phi i32 [ %48, %43 ], [ %.pre36, %._crit_edge ]
  %54 = load i32, ptr @hf_git_packet_data, align 4
  %55 = zext i16 %52 to i32
  %56 = call ptr @proto_tree_add_item(ptr noundef %2, i32 noundef %54, ptr noundef %0, i32 noundef %53, i32 noundef %55, i32 noundef 0) #4
  %57 = load i16, ptr %5, align 2
  %58 = zext i16 %57 to i32
  %59 = load i32, ptr %3, align 4
  %60 = add i32 %59, %58
  store i32 %60, ptr %3, align 4
  br label %61

61:                                               ; preds = %15, %23, %4, %51
  %.0 = phi i32 [ 1, %51 ], [ 0, %4 ], [ 1, %23 ], [ 1, %15 ]
  ret i32 %.0
}